
 Start         Length     Name                   Class
 0001:00000000 000092F4H .text                   CODE
 0002:00000000 00000448H .data                   DATA
 0002:00000448 000007ADH .bss                    BSS


Detailed map of segments

 0001:00000000 00003F97 C=CODE     S=.text    G=(none)   M=System   ACBP=A9
 0001:00003F98 00000158 C=CODE     S=.text    G=(none)   M=SysInit  ACBP=A9
 0001:000040F0 00000038 C=CODE     S=.text    G=(none)   M=Types    ACBP=A9
 0001:00004128 000000E0 C=CODE     S=.text    G=(none)   M=Windows  ACBP=A9
 0001:00004208 000002C8 C=CODE     S=.text    G=(none)   M=SysConst ACBP=A9
 0001:000044D0 00004760 C=CODE     S=.text    G=(none)   M=SysUtils ACBP=A9
 0001:00008C30 00000038 C=CODE     S=.text    G=(none)   M=StrUtils ACBP=A9
 0001:00008C68 00000038 C=CODE     S=.text    G=(none)   M=Math     ACBP=A9
 0001:00008CA0 00000038 C=CODE     S=.text    G=(none)   M=RTLConsts ACBP=A9
 0001:00008CD8 00000038 C=CODE     S=.text    G=(none)   M=DateUtils ACBP=A9
 0001:00008D10 00000448 C=CODE     S=.text    G=(none)   M=uNixTime ACBP=A9
 0001:00009158 0000019C C=CODE     S=.text    G=(none)   M=UnixTimeTest ACBP=A9
 0002:00000000 00000090 C=DATA     S=.data    G=DGROUP   M=System   ACBP=A9
 0002:00000090 0000001C C=DATA     S=.data    G=DGROUP   M=SysInit  ACBP=A9
 0002:000000AC 00000228 C=DATA     S=.data    G=DGROUP   M=SysUtils ACBP=A9
 0002:00001000 0000065C C=BSS      S=.bss     G=DGROUP   M=System   ACBP=A9
 0002:0000165C 00000010 C=BSS      S=.bss     G=DGROUP   M=SysInit  ACBP=A9
 0002:0000166C 00000004 C=BSS      S=.bss     G=DGROUP   M=Types    ACBP=A9
 0002:00001670 00000004 C=BSS      S=.bss     G=DGROUP   M=Windows  ACBP=A9
 0002:00001674 00000004 C=BSS      S=.bss     G=DGROUP   M=SysConst ACBP=A9
 0002:00001678 00000120 C=BSS      S=.bss     G=DGROUP   M=SysUtils ACBP=A9
 0002:00001798 00000004 C=BSS      S=.bss     G=DGROUP   M=StrUtils ACBP=A9
 0002:0000179C 00000004 C=BSS      S=.bss     G=DGROUP   M=Math     ACBP=A9
 0002:000017A0 00000004 C=BSS      S=.bss     G=DGROUP   M=RTLConsts ACBP=A9
 0002:000017A4 00000004 C=BSS      S=.bss     G=DGROUP   M=DateUtils ACBP=A9
 0002:000017A8 00000004 C=BSS      S=.bss     G=DGROUP   M=uNixTime ACBP=A9


  Address         Publics by Name

 0002:00001798       .1
 0002:00001674       .1
 0002:000017A8       .1
 0002:0000166C       .1
 0002:000017A4       .1
 0002:000017A0       .1
 0002:00001664       .1
 0002:0000179C       .2
 0002:00001670       .3
 0002:00001788       .35
 0002:000015B4       .5
 0001:00002728       @AfterConstruction
 0001:00002738       @BeforeDestruction
 0001:000026D0       @ClassCreate
 0001:00002720       @ClassDestroy
 0001:00001D88       @Close
 0001:00003534       @DispCallByIDError
 0001:00002A18       @DoneExcept
 0001:00003748       @DynArrayClear
 0001:00002B00       @ExceptionHandler
 0001:00003448       @FinalizeArray
 0001:000033FC       @FinalizeRecord
 0001:00001D7C       @Flush
 0001:00002540       @FpuInit
 0001:0000247C       @FpuMaskInit
 0001:000018D4       @FreeMem
 0001:000018A4       @GetMem
 0001:00004028       @GetTls
 0001:00002F4C       @Halt
 0001:00002E6C       @Halt0
 0001:00002838       @HandleAnyException
 0001:00002964       @HandleFinally
 0001:00004074       @InitExe
 0001:00002D30       @InitImports
 0001:00002D08       @InitResStringImports
 0001:00003D8C       @IntfClear
 0001:0000262C       @IsClass
 0001:0000244C       @isNECWindows
 0001:00002F88       @LStrArrayClr
 0001:00002FB8       @LStrAsg
 0001:00003204       @LStrCat
 0001:00003248       @LStrCatN
 0001:00002F64       @LStrClr
 0001:000032E0       @LStrCopy
 0001:000031AC       @LStrFromArray
 0001:00003130       @LStrFromChar
 0001:00003140       @LStrFromPChar
 0001:00003054       @LStrFromPCharLen
 0001:00003170       @LStrFromPWChar
 0001:000030A4       @LStrFromPWCharLen
 0001:000031C4       @LStrFromWStr
 0001:00002FFC       @LStrLAsg
 0001:000031FC       @LStrLen
 0001:00003320       @LStrSetLength
 0001:000032D4       @LStrToPChar
 0001:000031D8       @LStrToString
 0001:00003028       @NewAnsiString
 0001:00002160       @Pow10
 0001:000029C4       @RaiseAgain
 0001:0000299C       @RaiseExcept
 0001:00001E1C       @ReadChar
 0001:00001E88       @ReadLn
 0001:000018F4       @ReallocMem
 0001:00001AB8       @ResetText
 0001:00001AC4       @RewritText
 0001:00002F58       @RunError
 0001:00002144       @SetEq
 0001:00001A38       @SetLength
 0001:00002CC8       @StartExe
 0001:00003658       @StrInt64
 0001:00000148       @strlen
 0001:00001A3C       @TRUNC
 0001:00002A48       @TryFinallyExit
 0001:00001EB8       @ValLong
 0001:00003430       @VarClr
 0001:00003740       @Write0Int64
 0001:00003384       @Write0LString
 0001:000020A0       @Write0String
 0001:00001FD0       @WriteBytes
 0001:00003718       @WriteInt64
 0001:000020F0       @WriteLn
 0001:000033A0       @WriteLString
 0001:00002024       @WriteSpaces
 0001:000020C0       @WriteString
 0001:000033D8       @WStrArrayClr
 0001:000033C0       @WStrClr
 0001:000019A8       @_IOTest
 0001:00003560       @_lldiv
 0001:000035DC       @_llmod
 0001:0000353C       @_llmul
 0001:00007850       AbstractErrorHandler
 0002:00001028       AbstractErrorProc
 0001:00000278       AddBlockAfter
 0002:000015AC       AllocMemCount
 0002:000015B0       AllocMemSize
 0001:00003FB8       AllocTlsBuffer
 0001:0000805C       AnsiStrRScan
 0001:000080A4       AnsiStrScan
 0001:0000610C       AppendChars
 0001:000064D8       AppendFormat
 0001:00006170       AppendNumber
 0001:00006150       AppendString
 0001:00007834       AssertErrorHandler
 0002:00001020       AssertErrorProc
 0002:00001604       avail
 0001:000050EC       BackfillGetDiskFreeSpaceEx
 0002:000015DC       blockDescBlockList
 0002:000015E0       blockDescFreeList
 0001:00007E00       ByteToCharIndex
 0001:00007DD8       ByteToCharLen
 0001:00007D9C       ByteType
 0001:00007D24       ByteTypeTest
 0001:00003084       CharFromWChar
 0001:00007FE4       CharLength
 0001:000000C0       CharNext
 0001:000041A8       CharNext
 0001:00007EEC       CharToByteIndex
 0001:00007F50       CharToByteLen
 0001:000041B0       CharToOemA
 0001:000027B4       CheckJmp
 0001:00000060       CloseHandle
 0002:0000103C       CmdLine
 0002:00001038       CmdShow
 0001:000005F8       Commit
 0002:00001620       committedRoot
 0001:00007280       ConvertAddr
 0001:00006264       ConvertEraString
 0001:00004EE0       ConvertError
 0001:00004EF8       ConvertErrorFmt
 0001:000063D0       ConvertYearString
 0001:00007E5C       CountChars
 0001:00007778       CreateAssertException
 0001:00007900       CreateAVObject
 0001:00000068       CreateFileA
 0001:000076A4       CreateInOutError
 0002:00000120       cSimpleBoolStrs
 0002:00001618       curAlloc
 0002:00001680       CurrencyDecimals
 0002:0000167C       CurrencyFormat
 0002:00001678       CurrencyString
 0001:00008F90       CurrTimeToStr
 0001:00004F1C       CvtInt
 0001:00004F68       CvtInt64
 0002:00001681       DateSeparator
 0001:00006CB0       DateTimeToString
 0001:00005C98       DateTimeToTimeStamp
 0001:00008D08       DateUtils
 0001:00006094       DayOfWeek
 0002:0000013C       DCon10
 0002:00000018       DebugHook
 0002:0000167F       DecimalSeparator
 0001:00006074       DecodeDate
 0001:00005F24       DecodeDateFully
 0001:00005D8C       DecodeTime
 0001:000006B8       Decommit
 0001:00000DE4       DecommitFree
 0002:000015F4       decommittedRoot
 0002:00000014       Default8087CW
 0002:00000024       DefaultTextLineBreakStyle
 0002:000015B8       DefaultUserCodePage
 0002:000001C8       DefLongDayNames
 0002:0000017C       DefLongMonthNames
 0002:000001AC       DefShortDayNames
 0002:0000014C       DefShortMonthNames
 0001:00003784       DelayLoadResourceModule
 0001:000002D4       DeleteBlock
 0001:000001E4       DeleteCriticalSection
 0001:00000BCC       DeleteFree
 0002:00000080       dig
 0002:00001000       DispCallByIDProc
 0001:00004EC4       DivMod
 0001:00007C34       DoneExceptions
 0001:00007678       EHeapException.FreeInstance
 0002:000000AC       EmptyStr
 0002:000000B0       EmptyWideStr
 0001:00005EF4       EncodeDate
 0001:00005D4C       EncodeTime
 0001:000001D4       EnterCriticalSection
 0001:00004128       EnumCalendarInfoA
 0001:00006EF4       EnumEraNames
 0001:00006F30       EnumEraYearOffsets
 0002:00001748       EraNames
 0002:00001764       EraYearOffsets
 0002:00000058       errCaption
 0001:0000199C       Error
 0002:00000004       ErrorAddr
 0001:00001950       ErrorAt
 0001:00007724       ErrorHandler
 0002:000001E4       ErrorMap
 0002:00001008       ErrorProc
 0002:000013E0       ErrOutput
 0002:0000100C       ExceptClsProc
 0001:00007BA0       ExceptHandler
 0001:000074EC       Exception.Create
 0001:00007528       Exception.CreateFmt
 0001:000075A8       Exception.CreateRes
 0001:000075E4       Exception.CreateResFmt
 0002:0000101C       ExceptionClass
 0001:0000728C       ExceptionErrorMessage
 0002:0000021C       ExceptMap
 0002:00001010       ExceptObjProc
 0002:00001004       ExceptProc
 0002:00000000       ExitCode
 0001:00002DB0       ExitDll
 0002:00001040       ExitProc
 0001:000000C8       ExitProcess
 0002:00001024       ExitProcessProc
 0001:000050B4       ExtractFileName
 0002:00001784       FalseBoolStrs
 0002:00000130       FCon1E18
 0002:00000008       FileMode
 0001:00001B0C       FileNOPProc
 0001:00000D04       FillAfterGap
 0001:00000CA4       FillBeforeGap
 0001:00000DA4       FillerSizeAfterGap
 0001:00000D2C       FillerSizeBeforeGap
 0001:00008CD8       Finalization
 0001:00009158       Finalization
 0001:000040B8       Finalization
 0001:000041D0       Finalization
 0001:00003E70       Finalization
 0001:000040F0       Finalization
 0001:00004498       Finalization
 0001:00008A30       Finalization
 0001:00008CA0       Finalization
 0001:00008C68       Finalization
 0001:00009120       Finalization
 0001:00008C30       Finalization
 0001:00002BE8       FinalizeUnits
 0001:00003814       FindBS
 0001:000000D8       FindClose
 0001:00000C60       FindCommitted
 0001:000000E0       FindFirstFile
 0001:000037CC       FindResourceHInstance
 0002:00001794       FLanguages
 0001:00005A6C       FloatToDecimal
 0001:00005798       FloatToText
 0001:00001D70       Flush
 0002:00000140       FMSecsPerDay
 0001:0000568C       FmtStr
 0002:00000148       Format
 0001:00005678       Format
 0001:000052B4       FormatBuf
 0001:000052A8       FormatClearStr
 0001:00006D0C       FormatDateTime
 0001:0000522C       FormatError
 0002:00000128       FormatErrorStrs
 0001:00008DD8       FormatUnixTimeMs
 0001:00005284       FormatVarToStr
 0001:00002158       FPower10
 0001:00008750       FreeAndNil
 0001:00000960       FreeCommitted
 0001:00000F98       FreeCurAlloc
 0001:000000E8       FreeLibrary
 0001:00000530       FreeSpace
 0001:000086C8       FreeTerminateProcs
 0001:00004130       GetACP
 0001:000001EC       GetBlockDesc
 0001:00000188       GetCmdShow
 0001:000000F0       GetCommandLine
 0001:00000774       GetCommitted
 0001:0000081C       GetCommittedAt
 0001:000061BC       GetCount
 0001:00004138       GetCPInfo
 0001:00000178       GetCurrentThreadId
 0001:000061EC       GetDate
 0001:00004140       GetDateFormat
 0001:00004148       GetDiskFreeSpaceA
 0002:0000011C       GetDiskFreeSpaceEx
 0001:00002650       GetDynaMethod
 0001:00006FA8       GetEraNamesAndYearOffsets
 0001:000078E8       GetExceptionClass
 0001:00007AD4       GetExceptionObject
 0001:00000078       GetFileSize
 0001:00000070       GetFileType
 0001:00008350       GetFormatSettings
 0001:00002444       GetKeyboardType
 0001:000000F8       GetLastError
 0001:00006D6C       GetLocaleChar
 0001:00004158       GetLocaleInfo
 0001:00000100       GetLocaleInfo
 0001:00006D20       GetLocaleStr
 0001:00004150       GetLocalTime
 0001:00000108       GetModuleFileName
 0001:00004160       GetModuleFileName
 0001:00004168       GetModuleHandle
 0001:00003F98       GetModuleHandle
 0001:00000110       GetModuleHandle
 0001:00006DD0       GetMonthDayNames
 0001:00004170       GetProcAddress
 0001:00000118       GetProcAddress
 0001:00000454       GetSpace
 0001:000004B8       GetSpaceAt
 0001:00000120       GetStartupInfo
 0001:00004178       GetStdHandle
 0001:00000080       GetStdHandle
 0001:00004180       GetStringTypeEx
 0001:000041B8       GetSystemMetrics
 0001:00004188       GetThreadLocale
 0001:00000128       GetThreadLocale
 0001:00006224       GetTime
 0001:00003FD0       GetTlsSize
 0001:00000180       GetVersion
 0001:00004190       GetVersionEx
 0002:000015C0       heapErrorCode
 0002:000015C4       heapLock
 0002:00000118       HexDisplayPrefix
 0002:00001660       HInstance
 0002:00000144       IMSecsPerDay
 0001:000009F4       InitAllocator
 0002:00001630       InitContext
 0001:000086F4       InitDriveSpacePtr
 0001:00007BB0       InitExceptions
 0001:000001CC       InitializeCriticalSection
 0002:000015BC       initialized
 0001:00004068       InitializeModule
 0001:00008160       InitLeadBytes
 0001:00007CB4       InitPlatformId
 0001:000081D8       InitSysLocale
 0001:00003FD8       InitThreadTLS
 0001:00002C58       InitUnits
 0002:00001048       Input
 0001:00000EA0       InsertFree
 0001:00001B4C       InternalClose
 0001:00001D28       InternalFlush
 0001:00000CE0       InternalFreeMem
 0002:00001790       InvalidPointer
 0001:000019D8       IOResult
 0002:00001044       IsConsole
 0001:00005DE8       IsLeapYear
 0002:00001034       IsLibrary
 0002:00001045       IsMultiThread
 0001:000081C0       IsWesternGroup
 0002:0000001C       JITEnable
 0001:00005064       LastDelimiter
 0001:00003DFC       LCIDToCodePage
 0001:000080EC       LCIDToCodePage
 0002:000000F8       LeadBytes
 0001:000001DC       LeaveCriticalSection
 0002:00000028       LibModuleList
 0002:00001746       ListSeparator
 0001:00000130       LoadLibraryEx
 0001:00003A18       LoadResourceModule
 0001:00003DA4       LoadResString
 0001:000041C0       LoadString
 0001:00000138       LoadString
 0001:000001AC       LocalAlloc
 0001:00003FA0       LocalAlloc
 0001:000001B4       LocalFree
 0001:00006D94       LocalGetLocaleStr
 0002:00001688       LongDateFormat
 0002:0000171C       LongDayNames
 0002:000016D0       LongMonthNames
 0002:0000169C       LongTimeFormat
 0001:00000140       lstrcpyn
 0002:0000102C       MainInstance
 0002:00001030       MainThreadID
 0001:00000270       MakeEmpty
 0001:00002D54       MakeErrorMessage
 0001:00007868       MapException
 0001:00002A60       MapToRunError
 0001:00008C98       Math
 0002:00000030       MemoryManager
 0001:00000308       MergeBlockAfter
 0001:00000FE4       MergeCommit
 0001:000000D0       MessageBox
 0001:000041C8       MessageBox
 0002:00000094       Module
 0002:0000165D       ModuleIsCpp
 0002:0000165C       ModuleIsLib
 0002:0000002C       ModuleUnloadList
 0002:000000C8       MonthDays
 0001:000019F8       Move
 0002:0000167D       NegCurrFormat
 0001:00001070       NewCommit
 0001:0000109C       NewCommitAt
 0001:00008020       NextCharIndex
 0002:00000020       NoErrMsg
 0001:000027A0       NotifyAnyExcept
 0001:00002788       NotifyExcept
 0001:000027D4       NotifyExceptFinally
 0001:00003C9C       NotifyModuleUnload
 0001:00002764       NotifyNonDelphiException
 0001:00002748       NotifyReRaise
 0001:000027FC       NotifyTerminate
 0001:00002818       NotifyUnhandled
 0001:000060BC       Now
 0001:00001A60       OpenText
 0002:0000178C       OutOfMemory
 0002:00001214       Output
 0001:00005754       PutExponent
 0001:00007824       RaiseAssertException
 0001:00000088       RaiseException
 0002:00001014       RaiseExceptionProc
 0001:00000090       ReadFile
 0001:00000150       RegCloseKey
 0001:00003CF8       RegisterModule
 0001:00000158       RegOpenKeyEx
 0001:00000160       RegQueryValueEx
 0002:0000003C       reMap
 0002:00001614       remBytes
 0001:00000390       RemoveBlock
 0001:000015D4       ResizeInPlace
 0002:00001610       rover
 0001:00008CD0       RTLConsts
 0001:00000098       RtlUnwind
 0002:00001018       RTLUnwindProc
 0002:00000060       runErrMsg
 0001:00001944       RunErrorAt
 0001:000010D0       SearchSmallBlocks
 0001:000000A0       SetEndOfFile
 0001:00002BA0       SetExceptionHandler
 0001:000000A8       SetFilePointer
 0001:000019C8       SetInOutRes
 0002:00001684       ShortDateFormat
 0002:00001700       ShortDayNames
 0002:000016A0       ShortMonthNames
 0002:00001698       ShortTimeFormat
 0001:00007424       ShowException
 0002:0000161C       smallTab
 0002:000015E4       spaceRoot
 0001:00007DC0       StrByteType
 0001:00007FB0       StrCharLength
 0001:00005194       StrLCopy
 0001:0000516C       StrLen
 0001:0000562C       StrLFmt
 0001:000051C8       StrLIComp
 0001:00005184       StrMove
 0001:00007FD0       StrNextChar
 0001:0000520C       StrScan
 0001:00005034       StrToIntDef
 0001:00008C60       StrUtils
 0001:000044C8       SysConst
 0001:000013FC       SysFreeMem
 0001:00000170       SysFreeString
 0001:00001250       SysGetMem
 0001:000040E8       SysInit
 0002:00001738       SysLocale
 0001:000017D8       SysReallocMem
 0001:00003EC4       System
 0001:00008BB0       SysUtils
 0002:000002D0       TerminateProcList
 0002:00001046       Test8086
 0001:00001B5C       TextClose
 0001:00001AD0       TextIn
 0001:00001B7C       TextOpen
 0001:00001B10       TextOut
 0002:0000167E       ThousandSeparator
 0002:00001690       TimeAMString
 0002:00001694       TimePMString
 0002:0000168C       TimeSeparator
 0002:00001668       tlsBuffer
 0001:00003FA8       TlsGetValue
 0002:00000090       TlsIndex
 0002:FFBF5008       TlsLast
 0001:00003FB0       TlsSetValue
 0001:000026A0       TObject.AfterConstruction
 0001:000026A4       TObject.BeforeDestruction
 0001:0000254C       TObject.ClassName
 0001:0000260C       TObject.CleanupInstance
 0001:0000269C       TObject.DefaultHandler
 0001:00002598       TObject.Destroy
 0001:000026A8       TObject.Dispatch
 0001:000025A8       TObject.Free
 0001:0000257C       TObject.FreeInstance
 0001:00002680       TObject.InheritsFrom
 0001:000025B4       TObject.InitInstance
 0001:00002590       TObject.InstanceSize
 0001:00002560       TObject.NewInstance
 0001:00002694       TObject.SafeCallException
 0001:00003840       ToLongPath
 0001:00007058       TranslateDateFormat
 0002:00001780       TrueBoolStrs
 0001:00005E24       TryEncodeDate
 0001:00005CDC       TryEncodeTime
 0001:00001108       TryHarder
 0001:00001DE0       TryOpenForInput
 0001:00001F8C       TryOpenForOutput
 0001:00004120       Types
 0001:000000B0       UnhandledExceptionFilter
 0001:00000ACC       UninitAllocator
 0001:00009150       uNixTime
 0001:00008D10       UnixTimeCurrent
 0001:00008D44       UnixTimeCurrentMs
 0001:00008DAC       UnixTimeMsToDtm
 0001:000091E8       UnixTimeTest
 0001:00008D80       UnixTimeToDtm
 0001:00003D08       UnregisterModule
 0001:00002BC0       UnsetExceptionHandler
 0002:0000000C       VarClearProc
 0002:00000010       VarToLStrProc
 0001:000001BC       VirtualAlloc
 0001:000001C4       VirtualFree
 0001:00004198       VirtualQuery
 0002:000002CC       WesternGroups
 0001:00000168       WideCharToMultiByte
 0002:000000C0       Win32BuildNumber
 0002:000000C4       Win32CSDVersion
 0002:000000B8       Win32MajorVersion
 0002:000000BC       Win32MinorVersion
 0002:000000B4       Win32Platform
 0001:00004200       Windows
 0001:00002DE0       WriteErrorMessage
 0001:000000B8       WriteFile
 0001:000041A0       WriteFile


  Address         Publics by Value

 0002:FFBF5008       TlsLast
 0001:00000060       CloseHandle
 0001:00000068       CreateFileA
 0001:00000070       GetFileType
 0001:00000078       GetFileSize
 0001:00000080       GetStdHandle
 0001:00000088       RaiseException
 0001:00000090       ReadFile
 0001:00000098       RtlUnwind
 0001:000000A0       SetEndOfFile
 0001:000000A8       SetFilePointer
 0001:000000B0       UnhandledExceptionFilter
 0001:000000B8       WriteFile
 0001:000000C0       CharNext
 0001:000000C8       ExitProcess
 0001:000000D0       MessageBox
 0001:000000D8       FindClose
 0001:000000E0       FindFirstFile
 0001:000000E8       FreeLibrary
 0001:000000F0       GetCommandLine
 0001:000000F8       GetLastError
 0001:00000100       GetLocaleInfo
 0001:00000108       GetModuleFileName
 0001:00000110       GetModuleHandle
 0001:00000118       GetProcAddress
 0001:00000120       GetStartupInfo
 0001:00000128       GetThreadLocale
 0001:00000130       LoadLibraryEx
 0001:00000138       LoadString
 0001:00000140       lstrcpyn
 0001:00000148       @strlen
 0001:00000150       RegCloseKey
 0001:00000158       RegOpenKeyEx
 0001:00000160       RegQueryValueEx
 0001:00000168       WideCharToMultiByte
 0001:00000170       SysFreeString
 0001:00000178       GetCurrentThreadId
 0001:00000180       GetVersion
 0001:00000188       GetCmdShow
 0001:000001AC       LocalAlloc
 0001:000001B4       LocalFree
 0001:000001BC       VirtualAlloc
 0001:000001C4       VirtualFree
 0001:000001CC       InitializeCriticalSection
 0001:000001D4       EnterCriticalSection
 0001:000001DC       LeaveCriticalSection
 0001:000001E4       DeleteCriticalSection
 0001:000001EC       GetBlockDesc
 0001:00000270       MakeEmpty
 0001:00000278       AddBlockAfter
 0001:000002D4       DeleteBlock
 0001:00000308       MergeBlockAfter
 0001:00000390       RemoveBlock
 0001:00000454       GetSpace
 0001:000004B8       GetSpaceAt
 0001:00000530       FreeSpace
 0001:000005F8       Commit
 0001:000006B8       Decommit
 0001:00000774       GetCommitted
 0001:0000081C       GetCommittedAt
 0001:00000960       FreeCommitted
 0001:000009F4       InitAllocator
 0001:00000ACC       UninitAllocator
 0001:00000BCC       DeleteFree
 0001:00000C60       FindCommitted
 0001:00000CA4       FillBeforeGap
 0001:00000CE0       InternalFreeMem
 0001:00000D04       FillAfterGap
 0001:00000D2C       FillerSizeBeforeGap
 0001:00000DA4       FillerSizeAfterGap
 0001:00000DE4       DecommitFree
 0001:00000EA0       InsertFree
 0001:00000F98       FreeCurAlloc
 0001:00000FE4       MergeCommit
 0001:00001070       NewCommit
 0001:0000109C       NewCommitAt
 0001:000010D0       SearchSmallBlocks
 0001:00001108       TryHarder
 0001:00001250       SysGetMem
 0001:000013FC       SysFreeMem
 0001:000015D4       ResizeInPlace
 0001:000017D8       SysReallocMem
 0001:000018A4       @GetMem
 0001:000018D4       @FreeMem
 0001:000018F4       @ReallocMem
 0001:00001944       RunErrorAt
 0001:00001950       ErrorAt
 0001:0000199C       Error
 0001:000019A8       @_IOTest
 0001:000019C8       SetInOutRes
 0001:000019D8       IOResult
 0001:000019F8       Move
 0001:00001A38       @SetLength
 0001:00001A3C       @TRUNC
 0001:00001A60       OpenText
 0001:00001AB8       @ResetText
 0001:00001AC4       @RewritText
 0001:00001AD0       TextIn
 0001:00001B0C       FileNOPProc
 0001:00001B10       TextOut
 0001:00001B4C       InternalClose
 0001:00001B5C       TextClose
 0001:00001B7C       TextOpen
 0001:00001D28       InternalFlush
 0001:00001D70       Flush
 0001:00001D7C       @Flush
 0001:00001D88       @Close
 0001:00001DE0       TryOpenForInput
 0001:00001E1C       @ReadChar
 0001:00001E88       @ReadLn
 0001:00001EB8       @ValLong
 0001:00001F8C       TryOpenForOutput
 0001:00001FD0       @WriteBytes
 0001:00002024       @WriteSpaces
 0001:000020A0       @Write0String
 0001:000020C0       @WriteString
 0001:000020F0       @WriteLn
 0001:00002144       @SetEq
 0001:00002158       FPower10
 0001:00002160       @Pow10
 0001:00002444       GetKeyboardType
 0001:0000244C       @isNECWindows
 0001:0000247C       @FpuMaskInit
 0001:00002540       @FpuInit
 0001:0000254C       TObject.ClassName
 0001:00002560       TObject.NewInstance
 0001:0000257C       TObject.FreeInstance
 0001:00002590       TObject.InstanceSize
 0001:00002598       TObject.Destroy
 0001:000025A8       TObject.Free
 0001:000025B4       TObject.InitInstance
 0001:0000260C       TObject.CleanupInstance
 0001:0000262C       @IsClass
 0001:00002650       GetDynaMethod
 0001:00002680       TObject.InheritsFrom
 0001:00002694       TObject.SafeCallException
 0001:0000269C       TObject.DefaultHandler
 0001:000026A0       TObject.AfterConstruction
 0001:000026A4       TObject.BeforeDestruction
 0001:000026A8       TObject.Dispatch
 0001:000026D0       @ClassCreate
 0001:00002720       @ClassDestroy
 0001:00002728       @AfterConstruction
 0001:00002738       @BeforeDestruction
 0001:00002748       NotifyReRaise
 0001:00002764       NotifyNonDelphiException
 0001:00002788       NotifyExcept
 0001:000027A0       NotifyAnyExcept
 0001:000027B4       CheckJmp
 0001:000027D4       NotifyExceptFinally
 0001:000027FC       NotifyTerminate
 0001:00002818       NotifyUnhandled
 0001:00002838       @HandleAnyException
 0001:00002964       @HandleFinally
 0001:0000299C       @RaiseExcept
 0001:000029C4       @RaiseAgain
 0001:00002A18       @DoneExcept
 0001:00002A48       @TryFinallyExit
 0001:00002A60       MapToRunError
 0001:00002B00       @ExceptionHandler
 0001:00002BA0       SetExceptionHandler
 0001:00002BC0       UnsetExceptionHandler
 0001:00002BE8       FinalizeUnits
 0001:00002C58       InitUnits
 0001:00002CC8       @StartExe
 0001:00002D08       @InitResStringImports
 0001:00002D30       @InitImports
 0001:00002D54       MakeErrorMessage
 0001:00002DB0       ExitDll
 0001:00002DE0       WriteErrorMessage
 0001:00002E6C       @Halt0
 0001:00002F4C       @Halt
 0001:00002F58       @RunError
 0001:00002F64       @LStrClr
 0001:00002F88       @LStrArrayClr
 0001:00002FB8       @LStrAsg
 0001:00002FFC       @LStrLAsg
 0001:00003028       @NewAnsiString
 0001:00003054       @LStrFromPCharLen
 0001:00003084       CharFromWChar
 0001:000030A4       @LStrFromPWCharLen
 0001:00003130       @LStrFromChar
 0001:00003140       @LStrFromPChar
 0001:00003170       @LStrFromPWChar
 0001:000031AC       @LStrFromArray
 0001:000031C4       @LStrFromWStr
 0001:000031D8       @LStrToString
 0001:000031FC       @LStrLen
 0001:00003204       @LStrCat
 0001:00003248       @LStrCatN
 0001:000032D4       @LStrToPChar
 0001:000032E0       @LStrCopy
 0001:00003320       @LStrSetLength
 0001:00003384       @Write0LString
 0001:000033A0       @WriteLString
 0001:000033C0       @WStrClr
 0001:000033D8       @WStrArrayClr
 0001:000033FC       @FinalizeRecord
 0001:00003430       @VarClr
 0001:00003448       @FinalizeArray
 0001:00003534       @DispCallByIDError
 0001:0000353C       @_llmul
 0001:00003560       @_lldiv
 0001:000035DC       @_llmod
 0001:00003658       @StrInt64
 0001:00003718       @WriteInt64
 0001:00003740       @Write0Int64
 0001:00003748       @DynArrayClear
 0001:00003784       DelayLoadResourceModule
 0001:000037CC       FindResourceHInstance
 0001:00003814       FindBS
 0001:00003840       ToLongPath
 0001:00003A18       LoadResourceModule
 0001:00003C9C       NotifyModuleUnload
 0001:00003CF8       RegisterModule
 0001:00003D08       UnregisterModule
 0001:00003D8C       @IntfClear
 0001:00003DA4       LoadResString
 0001:00003DFC       LCIDToCodePage
 0001:00003E70       Finalization
 0001:00003EC4       System
 0001:00003F98       GetModuleHandle
 0001:00003FA0       LocalAlloc
 0001:00003FA8       TlsGetValue
 0001:00003FB0       TlsSetValue
 0001:00003FB8       AllocTlsBuffer
 0001:00003FD0       GetTlsSize
 0001:00003FD8       InitThreadTLS
 0001:00004028       @GetTls
 0001:00004068       InitializeModule
 0001:00004074       @InitExe
 0001:000040B8       Finalization
 0001:000040E8       SysInit
 0001:000040F0       Finalization
 0001:00004120       Types
 0001:00004128       EnumCalendarInfoA
 0001:00004130       GetACP
 0001:00004138       GetCPInfo
 0001:00004140       GetDateFormat
 0001:00004148       GetDiskFreeSpaceA
 0001:00004150       GetLocalTime
 0001:00004158       GetLocaleInfo
 0001:00004160       GetModuleFileName
 0001:00004168       GetModuleHandle
 0001:00004170       GetProcAddress
 0001:00004178       GetStdHandle
 0001:00004180       GetStringTypeEx
 0001:00004188       GetThreadLocale
 0001:00004190       GetVersionEx
 0001:00004198       VirtualQuery
 0001:000041A0       WriteFile
 0001:000041A8       CharNext
 0001:000041B0       CharToOemA
 0001:000041B8       GetSystemMetrics
 0001:000041C0       LoadString
 0001:000041C8       MessageBox
 0001:000041D0       Finalization
 0001:00004200       Windows
 0001:00004498       Finalization
 0001:000044C8       SysConst
 0001:00004EC4       DivMod
 0001:00004EE0       ConvertError
 0001:00004EF8       ConvertErrorFmt
 0001:00004F1C       CvtInt
 0001:00004F68       CvtInt64
 0001:00005034       StrToIntDef
 0001:00005064       LastDelimiter
 0001:000050B4       ExtractFileName
 0001:000050EC       BackfillGetDiskFreeSpaceEx
 0001:0000516C       StrLen
 0001:00005184       StrMove
 0001:00005194       StrLCopy
 0001:000051C8       StrLIComp
 0001:0000520C       StrScan
 0001:0000522C       FormatError
 0001:00005284       FormatVarToStr
 0001:000052A8       FormatClearStr
 0001:000052B4       FormatBuf
 0001:0000562C       StrLFmt
 0001:00005678       Format
 0001:0000568C       FmtStr
 0001:00005754       PutExponent
 0001:00005798       FloatToText
 0001:00005A6C       FloatToDecimal
 0001:00005C98       DateTimeToTimeStamp
 0001:00005CDC       TryEncodeTime
 0001:00005D4C       EncodeTime
 0001:00005D8C       DecodeTime
 0001:00005DE8       IsLeapYear
 0001:00005E24       TryEncodeDate
 0001:00005EF4       EncodeDate
 0001:00005F24       DecodeDateFully
 0001:00006074       DecodeDate
 0001:00006094       DayOfWeek
 0001:000060BC       Now
 0001:0000610C       AppendChars
 0001:00006150       AppendString
 0001:00006170       AppendNumber
 0001:000061BC       GetCount
 0001:000061EC       GetDate
 0001:00006224       GetTime
 0001:00006264       ConvertEraString
 0001:000063D0       ConvertYearString
 0001:000064D8       AppendFormat
 0001:00006CB0       DateTimeToString
 0001:00006D0C       FormatDateTime
 0001:00006D20       GetLocaleStr
 0001:00006D6C       GetLocaleChar
 0001:00006D94       LocalGetLocaleStr
 0001:00006DD0       GetMonthDayNames
 0001:00006EF4       EnumEraNames
 0001:00006F30       EnumEraYearOffsets
 0001:00006FA8       GetEraNamesAndYearOffsets
 0001:00007058       TranslateDateFormat
 0001:00007280       ConvertAddr
 0001:0000728C       ExceptionErrorMessage
 0001:00007424       ShowException
 0001:000074EC       Exception.Create
 0001:00007528       Exception.CreateFmt
 0001:000075A8       Exception.CreateRes
 0001:000075E4       Exception.CreateResFmt
 0001:00007678       EHeapException.FreeInstance
 0001:000076A4       CreateInOutError
 0001:00007724       ErrorHandler
 0001:00007778       CreateAssertException
 0001:00007824       RaiseAssertException
 0001:00007834       AssertErrorHandler
 0001:00007850       AbstractErrorHandler
 0001:00007868       MapException
 0001:000078E8       GetExceptionClass
 0001:00007900       CreateAVObject
 0001:00007AD4       GetExceptionObject
 0001:00007BA0       ExceptHandler
 0001:00007BB0       InitExceptions
 0001:00007C34       DoneExceptions
 0001:00007CB4       InitPlatformId
 0001:00007D24       ByteTypeTest
 0001:00007D9C       ByteType
 0001:00007DC0       StrByteType
 0001:00007DD8       ByteToCharLen
 0001:00007E00       ByteToCharIndex
 0001:00007E5C       CountChars
 0001:00007EEC       CharToByteIndex
 0001:00007F50       CharToByteLen
 0001:00007FB0       StrCharLength
 0001:00007FD0       StrNextChar
 0001:00007FE4       CharLength
 0001:00008020       NextCharIndex
 0001:0000805C       AnsiStrRScan
 0001:000080A4       AnsiStrScan
 0001:000080EC       LCIDToCodePage
 0001:00008160       InitLeadBytes
 0001:000081C0       IsWesternGroup
 0001:000081D8       InitSysLocale
 0001:00008350       GetFormatSettings
 0001:000086C8       FreeTerminateProcs
 0001:000086F4       InitDriveSpacePtr
 0001:00008750       FreeAndNil
 0001:00008A30       Finalization
 0001:00008BB0       SysUtils
 0001:00008C30       Finalization
 0001:00008C60       StrUtils
 0001:00008C68       Finalization
 0001:00008C98       Math
 0001:00008CA0       Finalization
 0001:00008CD0       RTLConsts
 0001:00008CD8       Finalization
 0001:00008D08       DateUtils
 0001:00008D10       UnixTimeCurrent
 0001:00008D44       UnixTimeCurrentMs
 0001:00008D80       UnixTimeToDtm
 0001:00008DAC       UnixTimeMsToDtm
 0001:00008DD8       FormatUnixTimeMs
 0001:00008F90       CurrTimeToStr
 0001:00009120       Finalization
 0001:00009150       uNixTime
 0001:00009158       Finalization
 0001:000091E8       UnixTimeTest
 0002:00000000       ExitCode
 0002:00000004       ErrorAddr
 0002:00000008       FileMode
 0002:0000000C       VarClearProc
 0002:00000010       VarToLStrProc
 0002:00000014       Default8087CW
 0002:00000018       DebugHook
 0002:0000001C       JITEnable
 0002:00000020       NoErrMsg
 0002:00000024       DefaultTextLineBreakStyle
 0002:00000028       LibModuleList
 0002:0000002C       ModuleUnloadList
 0002:00000030       MemoryManager
 0002:0000003C       reMap
 0002:00000058       errCaption
 0002:00000060       runErrMsg
 0002:00000080       dig
 0002:00000090       TlsIndex
 0002:00000094       Module
 0002:000000AC       EmptyStr
 0002:000000B0       EmptyWideStr
 0002:000000B4       Win32Platform
 0002:000000B8       Win32MajorVersion
 0002:000000BC       Win32MinorVersion
 0002:000000C0       Win32BuildNumber
 0002:000000C4       Win32CSDVersion
 0002:000000C8       MonthDays
 0002:000000F8       LeadBytes
 0002:00000118       HexDisplayPrefix
 0002:0000011C       GetDiskFreeSpaceEx
 0002:00000120       cSimpleBoolStrs
 0002:00000128       FormatErrorStrs
 0002:00000130       FCon1E18
 0002:0000013C       DCon10
 0002:00000140       FMSecsPerDay
 0002:00000144       IMSecsPerDay
 0002:00000148       Format
 0002:0000014C       DefShortMonthNames
 0002:0000017C       DefLongMonthNames
 0002:000001AC       DefShortDayNames
 0002:000001C8       DefLongDayNames
 0002:000001E4       ErrorMap
 0002:0000021C       ExceptMap
 0002:000002CC       WesternGroups
 0002:000002D0       TerminateProcList
 0002:00001000       DispCallByIDProc
 0002:00001004       ExceptProc
 0002:00001008       ErrorProc
 0002:0000100C       ExceptClsProc
 0002:00001010       ExceptObjProc
 0002:00001014       RaiseExceptionProc
 0002:00001018       RTLUnwindProc
 0002:0000101C       ExceptionClass
 0002:00001020       AssertErrorProc
 0002:00001024       ExitProcessProc
 0002:00001028       AbstractErrorProc
 0002:0000102C       MainInstance
 0002:00001030       MainThreadID
 0002:00001034       IsLibrary
 0002:00001038       CmdShow
 0002:0000103C       CmdLine
 0002:00001040       ExitProc
 0002:00001044       IsConsole
 0002:00001045       IsMultiThread
 0002:00001046       Test8086
 0002:00001048       Input
 0002:00001214       Output
 0002:000013E0       ErrOutput
 0002:000015AC       AllocMemCount
 0002:000015B0       AllocMemSize
 0002:000015B4       .5
 0002:000015B8       DefaultUserCodePage
 0002:000015BC       initialized
 0002:000015C0       heapErrorCode
 0002:000015C4       heapLock
 0002:000015DC       blockDescBlockList
 0002:000015E0       blockDescFreeList
 0002:000015E4       spaceRoot
 0002:000015F4       decommittedRoot
 0002:00001604       avail
 0002:00001610       rover
 0002:00001614       remBytes
 0002:00001618       curAlloc
 0002:0000161C       smallTab
 0002:00001620       committedRoot
 0002:00001630       InitContext
 0002:0000165C       ModuleIsLib
 0002:0000165D       ModuleIsCpp
 0002:00001660       HInstance
 0002:00001664       .1
 0002:00001668       tlsBuffer
 0002:0000166C       .1
 0002:00001670       .3
 0002:00001674       .1
 0002:00001678       CurrencyString
 0002:0000167C       CurrencyFormat
 0002:0000167D       NegCurrFormat
 0002:0000167E       ThousandSeparator
 0002:0000167F       DecimalSeparator
 0002:00001680       CurrencyDecimals
 0002:00001681       DateSeparator
 0002:00001684       ShortDateFormat
 0002:00001688       LongDateFormat
 0002:0000168C       TimeSeparator
 0002:00001690       TimeAMString
 0002:00001694       TimePMString
 0002:00001698       ShortTimeFormat
 0002:0000169C       LongTimeFormat
 0002:000016A0       ShortMonthNames
 0002:000016D0       LongMonthNames
 0002:00001700       ShortDayNames
 0002:0000171C       LongDayNames
 0002:00001738       SysLocale
 0002:00001746       ListSeparator
 0002:00001748       EraNames
 0002:00001764       EraYearOffsets
 0002:00001780       TrueBoolStrs
 0002:00001784       FalseBoolStrs
 0002:00001788       .35
 0002:0000178C       OutOfMemory
 0002:00001790       InvalidPointer
 0002:00001794       FLanguages
 0002:00001798       .1
 0002:0000179C       .2
 0002:000017A0       .1
 0002:000017A4       .1
 0002:000017A8       .1

Bound resource files

UnixTimeTest.drf


Program entry point at 0001:000091E8
